; ModuleID = '23/1238.c'
source_filename = "23/1238.c"
target datalayout = "e-m:e-p270:32:32-p271:32:32-p272:64:64-i64:64-f80:128-n8:16:32:64-S128"
target triple = "x86_64-pc-linux-gnu"

@.str = private unnamed_addr constant [3 x i8] c"%s\00", align 1
@.str.1 = private unnamed_addr constant [4 x i8] c" %s\00", align 1

; Function Attrs: noinline nounwind uwtable
define dso_local void @main() #0 {
  %1 = alloca i8, align 1
  %2 = alloca i32, align 4
  %3 = alloca i32, align 4
  %4 = alloca i32, align 4
  %5 = alloca i32, align 4
  %6 = alloca [30 x [30 x i8]], align 16
  store i32 0, i32* %2, align 4
  br label %7

7:                                                ; preds = %15, %0
  %8 = load i32, i32* %2, align 4
  %9 = sext i32 %8 to i64
  %10 = getelementptr inbounds [30 x [30 x i8]], [30 x [30 x i8]]* %6, i64 0, i64 %9
  %11 = getelementptr inbounds [30 x i8], [30 x i8]* %10, i64 0, i64 0
  %12 = call i32 (i8*, ...) @__isoc99_scanf(i8* getelementptr inbounds ([3 x i8], [3 x i8]* @.str, i64 0, i64 0), i8* %11)
  %13 = load i32, i32* %2, align 4
  %14 = add nsw i32 %13, 1
  store i32 %14, i32* %2, align 4
  br label %15

15:                                               ; preds = %7
  %16 = call i32 @getchar()
  %17 = trunc i32 %16 to i8
  store i8 %17, i8* %1, align 1
  %18 = sext i8 %17 to i32
  %19 = icmp ne i32 %18, 10
  br i1 %19, label %7, label %20

20:                                               ; preds = %15
  %21 = load i32, i32* %2, align 4
  store i32 %21, i32* %5, align 4
  %22 = load i32, i32* %5, align 4
  %23 = sub nsw i32 %22, 1
  %24 = sext i32 %23 to i64
  %25 = getelementptr inbounds [30 x [30 x i8]], [30 x [30 x i8]]* %6, i64 0, i64 %24
  %26 = getelementptr inbounds [30 x i8], [30 x i8]* %25, i64 0, i64 0
  %27 = call i32 (i8*, ...) @printf(i8* getelementptr inbounds ([3 x i8], [3 x i8]* @.str, i64 0, i64 0), i8* %26)
  %28 = load i32, i32* %5, align 4
  %29 = sub nsw i32 %28, 2
  store i32 %29, i32* %2, align 4
  br label %30

30:                                               ; preds = %39, %20
  %31 = load i32, i32* %2, align 4
  %32 = icmp sge i32 %31, 0
  br i1 %32, label %33, label %42

33:                                               ; preds = %30
  %34 = load i32, i32* %2, align 4
  %35 = sext i32 %34 to i64
  %36 = getelementptr inbounds [30 x [30 x i8]], [30 x [30 x i8]]* %6, i64 0, i64 %35
  %37 = getelementptr inbounds [30 x i8], [30 x i8]* %36, i64 0, i64 0
  %38 = call i32 (i8*, ...) @printf(i8* getelementptr inbounds ([4 x i8], [4 x i8]* @.str.1, i64 0, i64 0), i8* %37)
  br label %39

39:                                               ; preds = %33
  %40 = load i32, i32* %2, align 4
  %41 = add nsw i32 %40, -1
  store i32 %41, i32* %2, align 4
  br label %30

42:                                               ; preds = %30
  ret void
}

declare dso_local i32 @__isoc99_scanf(i8*, ...) #1

declare dso_local i32 @getchar() #1

declare dso_local i32 @printf(i8*, ...) #1


!llvm.module.flags = !{!0}
!llvm.ident = !{!1}

!0 = !{i32 1, !"wchar_size", i32 4}
!1 = !{!"clang version 10.0.0-4ubuntu1 "}
